libnymea-mqtt.so.1 libnymea-mqtt #MINVER#
 _Z8dbgProtov@Base 0.1.9
 _Z9dbgClientv@Base 0.1.9
 _Z9dbgServerv@Base 0.1.9
 _ZGVZN9QtPrivate19ValueTypeIsMetaTypeI5QListI9QSslErrorELb1EE17registerConverterEiE1f@Base 0.1.9
 _ZGVZN9QtPrivate19ValueTypeIsMetaTypeI5QListIN4Mqtt19SubscribeReturnCodeEELb1EE17registerConverterEiE1f@Base 0.1.9
 _ZGVZN9QtPrivate19ValueTypeIsMetaTypeI7QVectorI16MqttSubscriptionELb1EE17registerConverterEiE1f@Base 0.1.9
 _ZN10MqttClient10setWillQoSEN4Mqtt3QoSE@Base 0.1.9
 _ZN10MqttClient10subscribedERK7QStringN4Mqtt19SubscribeReturnCodeE@Base 0.1.9
 _ZN10MqttClient11qt_metacallEN11QMetaObject4CallEiPPv@Base 0.1.9
 _ZN10MqttClient11qt_metacastEPKc@Base 0.1.9
 _ZN10MqttClient11setPasswordERK7QString@Base 0.1.9
 _ZN10MqttClient11setUsernameERK7QString@Base 0.1.9
 _ZN10MqttClient11unsubscribeERK16MqttSubscription@Base 0.1.9
 _ZN10MqttClient11unsubscribeERK7QString@Base 0.1.9
 _ZN10MqttClient11unsubscribeERK7QVectorI16MqttSubscriptionE@Base 0.1.9
 _ZN10MqttClient12disconnectedEv@Base 0.1.9
 _ZN10MqttClient12setKeepAliveEt@Base 0.1.9
 _ZN10MqttClient12setWillTopicERK7QString@Base 0.1.9
 _ZN10MqttClient12stateChangedEN15QAbstractSocket11SocketStateE@Base 0.1.9
 _ZN10MqttClient12unsubscribedEt@Base 0.1.9
 _ZN10MqttClient13connectToHostERK7QStringtbbRK17QSslConfiguration@Base 0.1.9
 _ZN10MqttClient13setWillRetainEb@Base 0.1.9
 _ZN10MqttClient14setWillMessageERK10QByteArray@Base 0.1.9
 _ZN10MqttClient15publishReceivedERK7QStringRK10QByteArrayb@Base 0.1.9
 _ZN10MqttClient15subscribeResultEtRK5QListIN4Mqtt19SubscribeReturnCodeEE@Base 0.1.9
 _ZN10MqttClient16setAutoReconnectEb@Base 0.1.9
 _ZN10MqttClient16staticMetaObjectE@Base 0.1.9
 _ZN10MqttClient18disconnectFromHostEv@Base 0.1.9
 _ZN10MqttClient26setMaxAutoReconnectTimeoutEt@Base 0.1.9
 _ZN10MqttClient5errorEN15QAbstractSocket11SocketErrorE@Base 0.1.9
 _ZN10MqttClient7publishERK7QStringRK10QByteArrayN4Mqtt3QoSEb@Base 0.1.9
 _ZN10MqttClient9connectedEN4Mqtt17ConnectReturnCodeE6QFlagsINS0_11ConnackFlagEE@Base 0.1.9
 _ZN10MqttClient9publishedEtRK7QString@Base 0.1.9
 _ZN10MqttClient9subscribeERK16MqttSubscription@Base 0.1.9
 _ZN10MqttClient9subscribeERK7QStringN4Mqtt3QoSE@Base 0.1.9
 _ZN10MqttClient9subscribeERK7QVectorI16MqttSubscriptionE@Base 0.1.9
 _ZN10MqttClientC1ERK7QStringP7QObject@Base 0.1.9
 _ZN10MqttClientC1ERK7QStringtS2_RK10QByteArrayN4Mqtt3QoSEbP7QObject@Base 0.1.9
 _ZN10MqttClientC2ERK7QStringP7QObject@Base 0.1.9
 _ZN10MqttClientC2ERK7QStringtS2_RK10QByteArrayN4Mqtt3QoSEbP7QObject@Base 0.1.9
 _ZN10MqttPacket10setPayloadERK10QByteArray@Base 0.1.9
 _ZN10MqttPacket10setWillQoSEN4Mqtt3QoSE@Base 0.1.9
 _ZN10MqttPacket11setClientIdERK10QByteArray@Base 0.1.9
 _ZN10MqttPacket11setPacketIdEt@Base 0.1.9
 _ZN10MqttPacket11setPasswordERK10QByteArray@Base 0.1.9
 _ZN10MqttPacket11setUsernameERK10QByteArray@Base 0.1.9
 _ZN10MqttPacket12setKeepAliveEt@Base 0.1.9
 _ZN10MqttPacket12setWillTopicERK10QByteArray@Base 0.1.9
 _ZN10MqttPacket13setWillRetainEb@Base 0.1.9
 _ZN10MqttPacket14setWillMessageERK10QByteArray@Base 0.1.9
 _ZN10MqttPacket15addSubscriptionERK16MqttSubscription@Base 0.1.9
 _ZN10MqttPacket15setCleanSessionEb@Base 0.1.9
 _ZN10MqttPacket15setConnackFlagsE6QFlagsIN4Mqtt11ConnackFlagEE@Base 0.1.9
 _ZN10MqttPacket16setProtocolLevelEN4Mqtt8ProtocolE@Base 0.1.9
 _ZN10MqttPacket16setSubscriptionsERK7QVectorI16MqttSubscriptionE@Base 0.1.9
 _ZN10MqttPacket20setConnectReturnCodeEN4Mqtt17ConnectReturnCodeE@Base 0.1.9
 _ZN10MqttPacket22addSubscribeReturnCodeEN4Mqtt19SubscribeReturnCodeE@Base 0.1.9
 _ZN10MqttPacket23setSubscribeReturnCodesE5QListIN4Mqtt19SubscribeReturnCodeEE@Base 0.1.9
 _ZN10MqttPacket5parseERK10QByteArray@Base 0.1.9
 _ZN10MqttPacket6setDupEb@Base 0.1.9
 _ZN10MqttPacket6setQoSEN4Mqtt3QoSE@Base 0.1.9
 _ZN10MqttPacket8setTopicERK10QByteArray@Base 0.1.9
 _ZN10MqttPacket9setRetainEb@Base 0.1.9
 _ZN10MqttPacketC1ENS_4TypeEtN4Mqtt3QoSEbb@Base 0.1.9
 _ZN10MqttPacketC1ERKS_@Base 0.1.9
 _ZN10MqttPacketC1Ev@Base 0.1.9
 _ZN10MqttPacketC2ENS_4TypeEtN4Mqtt3QoSEbb@Base 0.1.9
 _ZN10MqttPacketC2ERKS_@Base 0.1.9
 _ZN10MqttPacketC2Ev@Base 0.1.9
 _ZN10MqttPacketD1Ev@Base 0.1.9
 _ZN10MqttPacketD2Ev@Base 0.1.9
 _ZN10MqttPacketaSERKS_@Base 0.1.9
 _ZN10MqttServer11clientAliveERK7QString@Base 0.1.9
 _ZN10MqttServer11qt_metacallEN11QMetaObject4CallEiPPv@Base 0.1.9
 _ZN10MqttServer11qt_metacastEPKc@Base 0.1.9
 _ZN10MqttServer13setAuthorizerEP14MqttAuthorizer@Base 0.1.9
 _ZN10MqttServer15clientConnectedEiRK7QStringS2_RK12QHostAddress@Base 0.1.9
 _ZN10MqttServer15publishReceivedERK7QStringtS2_RK10QByteArray@Base 0.1.9
 _ZN10MqttServer16clientSubscribedERK7QStringS2_N4Mqtt3QoSE@Base 0.1.9
 _ZN10MqttServer16disconnectClientERK7QString@Base 0.1.9
 _ZN10MqttServer16staticMetaObjectE@Base 0.1.9
 _ZN10MqttServer18clientDisconnectedERK7QString@Base 0.1.9
 _ZN10MqttServer18clientUnsubscribedERK7QStringS2_@Base 0.1.9
 _ZN10MqttServer26setMaximumSubscriptionsQoSEN4Mqtt3QoSE@Base 0.1.9
 _ZN10MqttServer5closeEi@Base 0.1.9
 _ZN10MqttServer6listenERK12QHostAddresstRK17QSslConfiguration@Base 0.1.9
 _ZN10MqttServer7publishERK7QStringRK10QByteArray@Base 0.1.9
 _ZN10MqttServer9publishedERK7QStringtS2_RK10QByteArray@Base 0.1.9
 _ZN10MqttServerC1EP7QObject@Base 0.1.9
 _ZN10MqttServerC2EP7QObject@Base 0.1.9
 _ZN16MqttSubscription14setTopicFilterERK10QByteArray@Base 0.1.9
 _ZN16MqttSubscription6setQoSEN4Mqtt3QoSE@Base 0.1.9
 _ZN16MqttSubscriptionC1ERK10QByteArrayN4Mqtt3QoSE@Base 0.1.9
 _ZN16MqttSubscriptionC1Ev@Base 0.1.9
 _ZN16MqttSubscriptionC2ERK10QByteArrayN4Mqtt3QoSE@Base 0.1.9
 _ZN16MqttSubscriptionC2Ev@Base 0.1.9
 _ZN17MqttClientPrivate11newPacketIdEv@Base 0.1.9
 _ZN17MqttClientPrivate11onConnectedEv@Base 0.1.9
 _ZN17MqttClientPrivate11onReadyReadEv@Base 0.1.9
 _ZN17MqttClientPrivate11onSslErrorsERK5QListI9QSslErrorE@Base 0.1.9
 _ZN17MqttClientPrivate11qt_metacallEN11QMetaObject4CallEiPPv@Base 0.1.9
 _ZN17MqttClientPrivate11qt_metacastEPKc@Base 0.1.9
 _ZN17MqttClientPrivate11sendPingreqEv@Base 0.1.9
 _ZN17MqttClientPrivate13connectToHostERK7QStringtbbRK17QSslConfiguration@Base 0.1.9
 _ZN17MqttClientPrivate13onSocketErrorEN15QAbstractSocket11SocketErrorE@Base 0.1.9
 _ZN17MqttClientPrivate14onDisconnectedEv@Base 0.1.9
 _ZN17MqttClientPrivate16staticMetaObjectE@Base 0.1.9
 _ZN17MqttClientPrivate18disconnectFromHostEv@Base 0.1.9
 _ZN17MqttClientPrivate20onSocketStateChangedEN15QAbstractSocket11SocketStateE@Base 0.1.9
 _ZN17MqttClientPrivate21reconnectTimerTimeoutEv@Base 0.1.9
 _ZN17MqttClientPrivate21restartKeepAliveTimerEv@Base 0.1.9
 _ZN17MqttClientPrivateC1EP10MqttClient@Base 0.1.9
 _ZN17MqttClientPrivateC2EP10MqttClient@Base 0.1.9
 _ZN17MqttPacketPrivate17verifyHeaderFlagsEv@Base 0.1.9
 _ZN17MqttPacketPrivateC1ERKS_@Base 0.1.9
 _ZN17MqttPacketPrivateC2ERKS_@Base 0.1.9
 _ZN17MqttServerPrivate10matchTopicERK7QStringS2_@Base 0.1.9
 _ZN17MqttServerPrivate11newPacketIdEP13ClientContext@Base 0.1.9
 _ZN17MqttServerPrivate11qt_metacallEN11QMetaObject4CallEiPPv@Base 0.1.9
 _ZN17MqttServerPrivate11qt_metacastEPKc@Base 0.1.9
 _ZN17MqttServerPrivate13cleanupClientEP10QTcpSocket@Base 0.1.9
 _ZN17MqttServerPrivate13processPacketERK10MqttPacketP10QTcpSocket@Base 0.1.9
 _ZN17MqttServerPrivate15onDataAvailableEP10QSslSocketRK10QByteArray@Base 0.1.9
 _ZN17MqttServerPrivate16staticMetaObjectE@Base 0.1.9
 _ZN17MqttServerPrivate17onClientConnectedEP10QSslSocket@Base 0.1.9
 _ZN17MqttServerPrivate19validateTopicFilterERK7QString@Base 0.1.9
 _ZN17MqttServerPrivate20onClientDisconnectedEP10QSslSocket@Base 0.1.9
 _ZN17MqttServerPrivate7publishERK7QStringRK10QByteArray@Base 0.1.9
 _ZN17MqttServerPrivateC1EP10MqttServer@Base 0.1.9
 _ZN17MqttServerPrivateC2EP10MqttServer@Base 0.1.9
 _ZN17QtMetaTypePrivate13IteratorOwnerIPK16MqttSubscriptionE5equalEPKPvS7_@Base 0.1.9
 _ZN17QtMetaTypePrivate13IteratorOwnerIPK16MqttSubscriptionE6assignEPPvPKS5_@Base 0.1.9
 _ZN17QtMetaTypePrivate13IteratorOwnerIPK16MqttSubscriptionE7advanceEPPvi@Base 0.1.9
 _ZN17QtMetaTypePrivate13IteratorOwnerIPK16MqttSubscriptionE7destroyEPPv@Base 0.1.9
 _ZN17QtMetaTypePrivate19IteratorOwnerCommonIN5QListI9QSslErrorE14const_iteratorEE5equalEPKPvS8_@Base 0.1.9
 _ZN17QtMetaTypePrivate19IteratorOwnerCommonIN5QListI9QSslErrorE14const_iteratorEE6assignEPPvPKS6_@Base 0.1.9
 _ZN17QtMetaTypePrivate19IteratorOwnerCommonIN5QListI9QSslErrorE14const_iteratorEE7advanceEPPvi@Base 0.1.9
 _ZN17QtMetaTypePrivate19IteratorOwnerCommonIN5QListI9QSslErrorE14const_iteratorEE7destroyEPPv@Base 0.1.9
 _ZN17QtMetaTypePrivate19IteratorOwnerCommonIN5QListIN4Mqtt19SubscribeReturnCodeEE14const_iteratorEE5equalEPKPvS9_@Base 0.1.9
 _ZN17QtMetaTypePrivate19IteratorOwnerCommonIN5QListIN4Mqtt19SubscribeReturnCodeEE14const_iteratorEE6assignEPPvPKS7_@Base 0.1.9
 _ZN17QtMetaTypePrivate19IteratorOwnerCommonIN5QListIN4Mqtt19SubscribeReturnCodeEE14const_iteratorEE7advanceEPPvi@Base 0.1.9
 _ZN17QtMetaTypePrivate19IteratorOwnerCommonIN5QListIN4Mqtt19SubscribeReturnCodeEE14const_iteratorEE7destroyEPPv@Base 0.1.9
 _ZN17QtMetaTypePrivate23QMetaTypeFunctionHelperI16MqttSubscriptionLb1EE8DestructEPv@Base 0.1.9
 _ZN17QtMetaTypePrivate23QMetaTypeFunctionHelperI16MqttSubscriptionLb1EE9ConstructEPvPKv@Base 0.1.9
 _ZN17QtMetaTypePrivate23QMetaTypeFunctionHelperI5QListI9QSslErrorELb1EE8DestructEPv@Base 0.1.9
 _ZN17QtMetaTypePrivate23QMetaTypeFunctionHelperI5QListI9QSslErrorELb1EE9ConstructEPvPKv@Base 0.1.9
 _ZN17QtMetaTypePrivate23QMetaTypeFunctionHelperI5QListIN4Mqtt19SubscribeReturnCodeEELb1EE8DestructEPv@Base 0.1.9
 _ZN17QtMetaTypePrivate23QMetaTypeFunctionHelperI5QListIN4Mqtt19SubscribeReturnCodeEELb1EE9ConstructEPvPKv@Base 0.1.9
 _ZN17QtMetaTypePrivate23QMetaTypeFunctionHelperI6QFlagsIN4Mqtt11ConnackFlagEELb1EE8DestructEPv@Base 0.1.9
 _ZN17QtMetaTypePrivate23QMetaTypeFunctionHelperI6QFlagsIN4Mqtt11ConnackFlagEELb1EE9ConstructEPvPKv@Base 0.1.9
 _ZN17QtMetaTypePrivate23QMetaTypeFunctionHelperI7QVectorI16MqttSubscriptionELb1EE8DestructEPv@Base 0.1.9
 _ZN17QtMetaTypePrivate23QMetaTypeFunctionHelperI7QVectorI16MqttSubscriptionELb1EE9ConstructEPvPKv@Base 0.1.9
 _ZN17QtMetaTypePrivate23QMetaTypeFunctionHelperI9QSslErrorLb1EE8DestructEPv@Base 0.1.9
 _ZN17QtMetaTypePrivate23QMetaTypeFunctionHelperI9QSslErrorLb1EE9ConstructEPvPKv@Base 0.1.9
 _ZN17QtMetaTypePrivate23QMetaTypeFunctionHelperIN15QAbstractSocket11SocketErrorELb1EE8DestructEPv@Base 0.1.9
 _ZN17QtMetaTypePrivate23QMetaTypeFunctionHelperIN15QAbstractSocket11SocketErrorELb1EE9ConstructEPvPKv@Base 0.1.9
 _ZN17QtMetaTypePrivate23QMetaTypeFunctionHelperIN15QAbstractSocket11SocketStateELb1EE8DestructEPv@Base 0.1.9
 _ZN17QtMetaTypePrivate23QMetaTypeFunctionHelperIN15QAbstractSocket11SocketStateELb1EE9ConstructEPvPKv@Base 0.1.9
 _ZN17QtMetaTypePrivate23QMetaTypeFunctionHelperIN4Mqtt17ConnectReturnCodeELb1EE8DestructEPv@Base 0.1.9
 _ZN17QtMetaTypePrivate23QMetaTypeFunctionHelperIN4Mqtt17ConnectReturnCodeELb1EE9ConstructEPvPKv@Base 0.1.9
 _ZN17QtMetaTypePrivate23QMetaTypeFunctionHelperIN4Mqtt19SubscribeReturnCodeELb1EE8DestructEPv@Base 0.1.9
 _ZN17QtMetaTypePrivate23QMetaTypeFunctionHelperIN4Mqtt19SubscribeReturnCodeELb1EE9ConstructEPvPKv@Base 0.1.9
 _ZN17QtMetaTypePrivate23QMetaTypeFunctionHelperIN4Mqtt3QoSELb1EE8DestructEPv@Base 0.1.9
 _ZN17QtMetaTypePrivate23QMetaTypeFunctionHelperIN4Mqtt3QoSELb1EE9ConstructEPvPKv@Base 0.1.9
 _ZN17QtMetaTypePrivate23QMetaTypeFunctionHelperINS_23QSequentialIterableImplELb1EE8DestructEPv@Base 0.1.9
 _ZN17QtMetaTypePrivate23QMetaTypeFunctionHelperINS_23QSequentialIterableImplELb1EE9ConstructEPvPKv@Base 0.1.9
 _ZN17QtMetaTypePrivate23QMetaTypeFunctionHelperIP10QSslSocketLb1EE8DestructEPv@Base 0.1.9
 _ZN17QtMetaTypePrivate23QMetaTypeFunctionHelperIP10QSslSocketLb1EE9ConstructEPvPKv@Base 0.1.9
 _ZN17QtMetaTypePrivate23QSequentialIterableImpl10moveToImplI5QListI9QSslErrorEEEvPKvPPvNS0_8PositionE@Base 0.1.9
 _ZN17QtMetaTypePrivate23QSequentialIterableImpl10moveToImplI5QListIN4Mqtt19SubscribeReturnCodeEEEEvPKvPPvNS0_8PositionE@Base 0.1.9
 _ZN17QtMetaTypePrivate23QSequentialIterableImpl10moveToImplI7QVectorI16MqttSubscriptionEEEvPKvPPvNS0_8PositionE@Base 0.1.9
 _ZN17QtMetaTypePrivate23QSequentialIterableImpl6atImplI5QListI9QSslErrorEEEPKvS6_i@Base 0.1.9
 _ZN17QtMetaTypePrivate23QSequentialIterableImpl6atImplI5QListIN4Mqtt19SubscribeReturnCodeEEEEPKvS7_i@Base 0.1.9
 _ZN17QtMetaTypePrivate23QSequentialIterableImpl6atImplI7QVectorI16MqttSubscriptionEEEPKvS6_i@Base 0.1.9
 _ZN17QtMetaTypePrivate23QSequentialIterableImpl7getImplI5QListI9QSslErrorEEENS_11VariantDataEPKPvij@Base 0.1.9
 _ZN17QtMetaTypePrivate23QSequentialIterableImpl7getImplI5QListIN4Mqtt19SubscribeReturnCodeEEEENS_11VariantDataEPKPvij@Base 0.1.9
 _ZN17QtMetaTypePrivate23QSequentialIterableImpl7getImplI7QVectorI16MqttSubscriptionEEENS_11VariantDataEPKPvij@Base 0.1.9
 _ZN17QtMetaTypePrivate23QSequentialIterableImpl8sizeImplI5QListI9QSslErrorEEEiPKv@Base 0.1.9
 _ZN17QtMetaTypePrivate23QSequentialIterableImpl8sizeImplI5QListIN4Mqtt19SubscribeReturnCodeEEEEiPKv@Base 0.1.9
 _ZN17QtMetaTypePrivate23QSequentialIterableImpl8sizeImplI7QVectorI16MqttSubscriptionEEEiPKv@Base 0.1.9
 _ZN17QtMetaTypePrivate25ContainerCapabilitiesImplI5QListI9QSslErrorEvE10appendImplEPKvS6_@Base 0.1.9
 _ZN17QtMetaTypePrivate25ContainerCapabilitiesImplI5QListIN4Mqtt19SubscribeReturnCodeEEvE10appendImplEPKvS7_@Base 0.1.9
 _ZN17QtMetaTypePrivate25ContainerCapabilitiesImplI7QVectorI16MqttSubscriptionEvE10appendImplEPKvS6_@Base 0.1.9
 _ZN5QHashI7QString5QListI10MqttPacketEE11deleteNode2EPN9QHashData4NodeE@Base 0.1.9
 _ZN5QHashI7QString5QListI10MqttPacketEE13duplicateNodeEPN9QHashData4NodeEPv@Base 0.1.9
 _ZN5QHashI7QStringtE11deleteNode2EPN9QHashData4NodeE@Base 0.1.9
 _ZN5QHashI7QStringtE13duplicateNodeEPN9QHashData4NodeEPv@Base 0.1.9
 _ZN5QHashIP10QTcpSocket10QByteArrayE11deleteNode2EPN9QHashData4NodeE@Base 0.1.9
 _ZN5QHashIP10QTcpSocket10QByteArrayE13duplicateNodeEPN9QHashData4NodeEPv@Base 0.1.9
 _ZN5QHashIP10QTcpSocketN4Mqtt3QoSEE11deleteNode2EPN9QHashData4NodeE@Base 0.1.9
 _ZN5QHashIP10QTcpSocketN4Mqtt3QoSEE13duplicateNodeEPN9QHashData4NodeEPv@Base 0.1.9
 _ZN5QHashIP10QTcpSocketP13ClientContextE11deleteNode2EPN9QHashData4NodeE@Base 0.1.9
 _ZN5QHashIP10QTcpSocketP13ClientContextE13duplicateNodeEPN9QHashData4NodeEPv@Base 0.1.9
 _ZN5QHashIP10QTcpSocketP6QTimerE11deleteNode2EPN9QHashData4NodeE@Base 0.1.9
 _ZN5QHashIP10QTcpSocketP6QTimerE13duplicateNodeEPN9QHashData4NodeEPv@Base 0.1.9
 _ZN5QHashIP10QTcpSocketP9SslServerE11deleteNode2EPN9QHashData4NodeE@Base 0.1.9
 _ZN5QHashIP10QTcpSocketP9SslServerE13duplicateNodeEPN9QHashData4NodeEPv@Base 0.1.9
 _ZN5QHashIiP9SslServerE11deleteNode2EPN9QHashData4NodeE@Base 0.1.9
 _ZN5QHashIiP9SslServerE13duplicateNodeEPN9QHashData4NodeEPv@Base 0.1.9
 _ZN5QHashIt10MqttPacketE11deleteNode2EPN9QHashData4NodeE@Base 0.1.9
 _ZN5QHashIt10MqttPacketE13duplicateNodeEPN9QHashData4NodeEPv@Base 0.1.9
 _ZN9QtPrivate11QSlotObjectIM17MqttClientPrivateFvN15QAbstractSocket11SocketErrorEENS_4ListIJS3_EEEvE4implEiPNS_15QSlotObjectBaseEP7QObjectPPvPb@Base 0.1.9
 _ZN9QtPrivate11QSlotObjectIM17MqttClientPrivateFvN15QAbstractSocket11SocketStateEENS_4ListIJS3_EEEvE4implEiPNS_15QSlotObjectBaseEP7QObjectPPvPb@Base 0.1.9
 _ZN9QtPrivate11QSlotObjectIM17MqttClientPrivateFvRK5QListI9QSslErrorEENS_4ListIJS6_EEEvE4implEiPNS_15QSlotObjectBaseEP7QObjectPPvPb@Base 0.1.9
 _ZN9QtPrivate11QSlotObjectIM17MqttClientPrivateFvvENS_4ListIJEEEvE4implEiPNS_15QSlotObjectBaseEP7QObjectPPvPb@Base 0.1.9
 _ZN9QtPrivate11QSlotObjectIM17MqttServerPrivateFvP10QSslSocketENS_4ListIJS3_EEEvE4implEiPNS_15QSlotObjectBaseEP7QObjectPPvPb@Base 0.1.9
 _ZN9QtPrivate11QSlotObjectIM17MqttServerPrivateFvP10QSslSocketRK10QByteArrayENS_4ListIJS3_S6_EEEvE4implEiPNS_15QSlotObjectBaseEP7QObjectPPvPb@Base 0.1.9
 _ZN9QtPrivate11QSlotObjectIM9SslServerFvvENS_4ListIJEEEvE4implEiPNS_15QSlotObjectBaseEP7QObjectPPvPb@Base 0.1.9
 _ZN9QtPrivate16ConverterFunctorI5QListI9QSslErrorEN17QtMetaTypePrivate23QSequentialIterableImplENS4_33QSequentialIterableConvertFunctorIS3_EEE7convertEPKNS_25AbstractConverterFunctionEPKvPv@Base 0.1.9
 _ZN9QtPrivate16ConverterFunctorI5QListIN4Mqtt19SubscribeReturnCodeEEN17QtMetaTypePrivate23QSequentialIterableImplENS5_33QSequentialIterableConvertFunctorIS4_EEE7convertEPKNS_25AbstractConverterFunctionEPKvPv@Base 0.1.9
 _ZN9QtPrivate16ConverterFunctorI7QVectorI16MqttSubscriptionEN17QtMetaTypePrivate23QSequentialIterableImplENS4_33QSequentialIterableConvertFunctorIS3_EEE7convertEPKNS_25AbstractConverterFunctionEPKvPv@Base 0.1.9
 _ZN9SslServer11qt_metacallEN11QMetaObject4CallEiPPv@Base 0.1.9
 _ZN9SslServer11qt_metacastEPKc@Base 0.1.9
 _ZN9SslServer13dataAvailableEP10QSslSocketRK10QByteArray@Base 0.1.9
 _ZN9SslServer15clientConnectedEP10QSslSocket@Base 0.1.9
 _ZN9SslServer16staticMetaObjectE@Base 0.1.9
 _ZN9SslServer17onSocketReadyReadEv@Base 0.1.9
 _ZN9SslServer18clientDisconnectedEP10QSslSocket@Base 0.1.9
 _ZN9SslServer18incomingConnectionEx@Base 0.1.9
 _ZN9SslServer20onClientDisconnectedEv@Base 0.1.9
 _ZNK10MqttClient10metaObjectEv@Base 0.1.9
 _ZNK10MqttClient10willRetainEv@Base 0.1.9
 _ZNK10MqttClient11isConnectedEv@Base 0.1.9
 _ZNK10MqttClient11willMessageEv@Base 0.1.9
 _ZNK10MqttClient13autoReconnectEv@Base 0.1.9
 _ZNK10MqttClient23maxAutoReconnectTimeoutEv@Base 0.1.9
 _ZNK10MqttClient7willQoSEv@Base 0.1.9
 _ZNK10MqttClient8passwordEv@Base 0.1.9
 _ZNK10MqttClient8usernameEv@Base 0.1.9
 _ZNK10MqttClient9willTopicEv@Base 0.1.9
 _ZNK10MqttPacket10willRetainEv@Base 0.1.9
 _ZNK10MqttPacket11willMessageEv@Base 0.1.9
 _ZNK10MqttPacket12cleanSessionEv@Base 0.1.9
 _ZNK10MqttPacket12connackFlagsEv@Base 0.1.9
 _ZNK10MqttPacket12connectFlagsEv@Base 0.1.9
 _ZNK10MqttPacket12protocolNameEv@Base 0.1.9
 _ZNK10MqttPacket13protocolLevelEv@Base 0.1.9
 _ZNK10MqttPacket13subscriptionsEv@Base 0.1.9
 _ZNK10MqttPacket17connectReturnCodeEv@Base 0.1.9
 _ZNK10MqttPacket20subscribeReturnCodesEv@Base 0.1.9
 _ZNK10MqttPacket3dupEv@Base 0.1.9
 _ZNK10MqttPacket3qosEv@Base 0.1.9
 _ZNK10MqttPacket4typeEv@Base 0.1.9
 _ZNK10MqttPacket5topicEv@Base 0.1.9
 _ZNK10MqttPacket6retainEv@Base 0.1.9
 _ZNK10MqttPacket7payloadEv@Base 0.1.9
 _ZNK10MqttPacket7willQoSEv@Base 0.1.9
 _ZNK10MqttPacket8clientIdEv@Base 0.1.9
 _ZNK10MqttPacket8packetIdEv@Base 0.1.9
 _ZNK10MqttPacket8passwordEv@Base 0.1.9
 _ZNK10MqttPacket8usernameEv@Base 0.1.9
 _ZNK10MqttPacket9keepAliveEv@Base 0.1.9
 _ZNK10MqttPacket9serializeEv@Base 0.1.9
 _ZNK10MqttPacket9willTopicEv@Base 0.1.9
 _ZNK10MqttPacketeqERKS_@Base 0.1.9
 _ZNK10MqttServer10metaObjectEv@Base 0.1.9
 _ZNK10MqttServer11isListeningERK12QHostAddresst@Base 0.1.9
 _ZNK10MqttServer19listeningAddressIdsEv@Base 0.1.9
 _ZNK10MqttServer23maximumSubscriptionsQoSEv@Base 0.1.9
 _ZNK10MqttServer7clientsEv@Base 0.1.9
 _ZNK16MqttSubscription11topicFilterEv@Base 0.1.9
 _ZNK16MqttSubscription3qoSEv@Base 0.1.9
 _ZNK16MqttSubscriptioneqERKS_@Base 0.1.9
 _ZNK17MqttClientPrivate10metaObjectEv@Base 0.1.9
 _ZNK17MqttPacketPrivate3dupEv@Base 0.1.9
 _ZNK17MqttPacketPrivate3qosEv@Base 0.1.9
 _ZNK17MqttPacketPrivate4typeEv@Base 0.1.9
 _ZNK17MqttPacketPrivate6retainEv@Base 0.1.9
 _ZNK17MqttServerPrivate10metaObjectEv@Base 0.1.9
 _ZNK9SslServer10metaObjectEv@Base 0.1.9
 _ZTI10MqttClient@Base 0.1.9
 _ZTI10MqttServer@Base 0.1.9
 _ZTI17MqttClientPrivate@Base 0.1.9
 _ZTI17MqttServerPrivate@Base 0.1.9
 _ZTI9SslServer@Base 0.1.9
 _ZTS10MqttClient@Base 0.1.9
 _ZTS10MqttServer@Base 0.1.9
 _ZTS17MqttClientPrivate@Base 0.1.9
 _ZTS17MqttServerPrivate@Base 0.1.9
 _ZTS9SslServer@Base 0.1.9
 _ZTV10MqttClient@Base 0.1.9
 _ZTV10MqttServer@Base 0.1.9
 _ZTV17MqttClientPrivate@Base 0.1.9
 _ZTV17MqttServerPrivate@Base 0.1.9
 _ZTV9SslServer@Base 0.1.9
 _ZZN11QMetaTypeIdI16MqttSubscriptionE14qt_metatype_idEvE11metatype_id@Base 0.1.9
 _ZZN11QMetaTypeIdI5QListI9QSslErrorEE14qt_metatype_idEvE11metatype_id@Base 0.1.9
 _ZZN11QMetaTypeIdI5QListIN4Mqtt19SubscribeReturnCodeEEE14qt_metatype_idEvE11metatype_id@Base 0.1.9
 _ZZN11QMetaTypeIdI6QFlagsIN4Mqtt11ConnackFlagEEE14qt_metatype_idEvE11metatype_id@Base 0.1.9
 _ZZN11QMetaTypeIdI7QVectorI16MqttSubscriptionEE14qt_metatype_idEvE11metatype_id@Base 0.1.9
 _ZZN11QMetaTypeIdIN15QAbstractSocket11SocketErrorEE14qt_metatype_idEvE11metatype_id@Base 0.1.9
 _ZZN11QMetaTypeIdIN15QAbstractSocket11SocketStateEE14qt_metatype_idEvE11metatype_id@Base 0.1.9
 _ZZN11QMetaTypeIdIN17QtMetaTypePrivate23QSequentialIterableImplEE14qt_metatype_idEvE11metatype_id@Base 0.1.9
 _ZZN11QMetaTypeIdIN4Mqtt17ConnectReturnCodeEE14qt_metatype_idEvE11metatype_id@Base 0.1.9
 _ZZN11QMetaTypeIdIN4Mqtt19SubscribeReturnCodeEE14qt_metatype_idEvE11metatype_id@Base 0.1.9
 _ZZN11QMetaTypeIdIN4Mqtt3QoSEE14qt_metatype_idEvE11metatype_id@Base 0.1.9
 _ZZN18QMetaTypeIdQObjectI9QSslErrorLi512EE14qt_metatype_idEvE11metatype_id@Base 0.1.9
 _ZZN18QMetaTypeIdQObjectIP10QSslSocketLi8EE14qt_metatype_idEvE11metatype_id@Base 0.1.9
 _ZZN9QtPrivate19ValueTypeIsMetaTypeI5QListI9QSslErrorELb1EE17registerConverterEiE1f@Base 0.1.9
 _ZZN9QtPrivate19ValueTypeIsMetaTypeI5QListIN4Mqtt19SubscribeReturnCodeEELb1EE17registerConverterEiE1f@Base 0.1.9
 _ZZN9QtPrivate19ValueTypeIsMetaTypeI7QVectorI16MqttSubscriptionELb1EE17registerConverterEiE1f@Base 0.1.9
